; Function Attrs: nofree norecurse nosync nounwind null_pointer_is_valid sspstrong memory(none) uwtable
define internal range(i32 -9, 1) i32 @netxray_dump_can_write_encap_2_0(i32 noundef %0) #5 {
  %2 = icmp eq i32 %0, -1
  br i1 %2, label %wtap_encap_to_netxray_2_0_encap.exit, label %.preheader

3:                                                ; preds = %.preheader
  %indvars.iv.next.i = add nuw nsw i64 %indvars.iv.i, 1
  %exitcond.not.i = icmp eq i64 %indvars.iv.next.i, 8
  br i1 %exitcond.not.i, label %wtap_encap_to_netxray_2_0_encap.exit, label %.preheader, !llvm.loop !10

.preheader:                                       ; preds = %1, %3
  %indvars.iv.i = phi i64 [ %indvars.iv.next.i, %3 ], [ 0, %1 ]
  %4 = getelementptr [8 x %struct.anon.4], ptr @wtap_encap_2_0, i64 0, i64 %indvars.iv.i
  %5 = load i32, ptr %4, align 8
  %6 = icmp eq i32 %0, %5
  br i1 %6, label %wtap_encap_to_netxray_2_0_encap.exit, label %3

wtap_encap_to_netxray_2_0_encap.exit:             ; preds = %3, %.preheader, %1
  %.0 = phi i32 [ -9, %1 ], [ -8, %3 ], [ 0, %.preheader ]
  ret i32 %.0
}